target datalayout = "e-m:e-p270:32:32-p271:32:32-p272:64:64-i64:64-i128:128-f80:128-n8:16:32:64-S128"
target triple = "x86_64-pc-linux-gnu"

%"class.base::BasicStringPiece.0" = type { ptr, i64 }

; Function Attrs: mustprogress nounwind uwtable
define linkonce_odr noundef ptr @_ZSt13find_first_ofIPKtS1_ET_S2_S2_T0_S3_(ptr noundef %0, ptr noundef %1, ptr noundef %2, ptr noundef %3) #0 comdat {
  %5 = alloca ptr, align 8
  %6 = alloca ptr, align 8
  %7 = alloca ptr, align 8
  %8 = alloca ptr, align 8
  %9 = alloca ptr, align 8
  %10 = alloca ptr, align 8
  %11 = alloca i32, align 4
  store ptr %0, ptr %6, align 8, !tbaa !49
  store ptr %1, ptr %7, align 8, !tbaa !49
  store ptr %2, ptr %8, align 8, !tbaa !49
  store ptr %3, ptr %9, align 8, !tbaa !49
  br label %12

12:                                               ; preds = %40, %4
  %13 = load ptr, ptr %6, align 8, !tbaa !49
  %14 = load ptr, ptr %7, align 8, !tbaa !49
  %15 = icmp ne ptr %13, %14
  br i1 %15, label %16, label %43

16:                                               ; preds = %12
  call void @llvm.lifetime.start.p0(i64 8, ptr %10) #14
  %17 = load ptr, ptr %8, align 8, !tbaa !49
  store ptr %17, ptr %10, align 8, !tbaa !49
  br label %18

18:                                               ; preds = %34, %16
  %19 = load ptr, ptr %10, align 8, !tbaa !49
  %20 = load ptr, ptr %9, align 8, !tbaa !49
  %21 = icmp ne ptr %19, %20
  br i1 %21, label %23, label %22

22:                                               ; preds = %18
  store i32 5, ptr %11, align 4
  br label %37

23:                                               ; preds = %18
  %24 = load ptr, ptr %6, align 8, !tbaa !49
  %25 = load i16, ptr %24, align 2, !tbaa !60
  %26 = zext i16 %25 to i32
  %27 = load ptr, ptr %10, align 8, !tbaa !49
  %28 = load i16, ptr %27, align 2, !tbaa !60
  %29 = zext i16 %28 to i32
  %30 = icmp eq i32 %26, %29
  br i1 %30, label %31, label %33

31:                                               ; preds = %23
  %32 = load ptr, ptr %6, align 8, !tbaa !49
  store ptr %32, ptr %5, align 8
  store i32 1, ptr %11, align 4
  br label %37

33:                                               ; preds = %23
  br label %34

34:                                               ; preds = %33
  %35 = load ptr, ptr %10, align 8, !tbaa !49
  %36 = getelementptr inbounds nuw i16, ptr %35, i32 1
  store ptr %36, ptr %10, align 8, !tbaa !49
  br label %18, !llvm.loop !81

37:                                               ; preds = %31, %22
  call void @llvm.lifetime.end.p0(i64 8, ptr %10) #14
  %38 = load i32, ptr %11, align 4
  switch i32 %38, label %47 [
    i32 5, label %39
    i32 1, label %45
  ]

39:                                               ; preds = %37
  br label %40

40:                                               ; preds = %39
  %41 = load ptr, ptr %6, align 8, !tbaa !49
  %42 = getelementptr inbounds nuw i16, ptr %41, i32 1
  store ptr %42, ptr %6, align 8, !tbaa !49
  br label %12, !llvm.loop !82

43:                                               ; preds = %12
  %44 = load ptr, ptr %7, align 8, !tbaa !49
  store ptr %44, ptr %5, align 8
  br label %45

45:                                               ; preds = %43, %37
  %46 = load ptr, ptr %5, align 8
  ret ptr %46

47:                                               ; preds = %37
  unreachable
}

; Function Attrs: mustprogress nounwind uwtable
define weak_odr noundef ptr @_ZNK4base16BasicStringPieceINSt7__cxx1112basic_stringItNS_20string16_char_traitsESaItEEEE3endEv(ptr noundef nonnull align 8 dereferenceable(16) %0) #0 comdat align 2 {
  %2 = alloca ptr, align 8
  store ptr %0, ptr %2, align 8, !tbaa !43
  %3 = load ptr, ptr %2, align 8
  %4 = getelementptr inbounds nuw %"class.base::BasicStringPiece.0", ptr %3, i32 0, i32 0
  %5 = load ptr, ptr %4, align 8, !tbaa !45
  %6 = getelementptr inbounds nuw %"class.base::BasicStringPiece.0", ptr %3, i32 0, i32 1
  %7 = load i64, ptr %6, align 8, !tbaa !48
  %8 = getelementptr inbounds nuw i16, ptr %5, i64 %7
  ret ptr %8
}

; Function Attrs: mustprogress nounwind uwtable
define weak_odr noundef ptr @_ZNK4base16BasicStringPieceINSt7__cxx1112basic_stringItNS_20string16_char_traitsESaItEEEE5beginEv(ptr noundef nonnull align 8 dereferenceable(16) %0) #0 comdat align 2 {
  %2 = alloca ptr, align 8
  store ptr %0, ptr %2, align 8, !tbaa !43
  %3 = load ptr, ptr %2, align 8
  %4 = getelementptr inbounds nuw %"class.base::BasicStringPiece.0", ptr %3, i32 0, i32 0
  %5 = load ptr, ptr %4, align 8, !tbaa !45
  ret ptr %5
}

; Function Attrs: mustprogress uwtable
define noundef i64 @_ZN4base8internal13find_first_ofERKNS_16BasicStringPieceINSt7__cxx1112basic_stringItNS_20string16_char_traitsESaItEEEEES9_m(ptr noundef nonnull align 8 dereferenceable(16) %0, ptr noundef nonnull align 8 dereferenceable(16) %1, i64 noundef %2) #1 {
  %4 = alloca i64, align 8
  %5 = alloca ptr, align 8
  %6 = alloca ptr, align 8
  %7 = alloca i64, align 8
  %8 = alloca ptr, align 8
  %9 = alloca i32, align 4
  store ptr %0, ptr %5, align 8, !tbaa !43
  store ptr %1, ptr %6, align 8, !tbaa !43
  store i64 %2, ptr %7, align 8, !tbaa !19
  call void @llvm.lifetime.start.p0(i64 8, ptr %8) #14
  %10 = load ptr, ptr %5, align 8, !tbaa !43
  %11 = call noundef ptr @_ZNK4base16BasicStringPieceINSt7__cxx1112basic_stringItNS_20string16_char_traitsESaItEEEE5beginEv(ptr noundef nonnull align 8 dereferenceable(16) %10)
  %12 = load i64, ptr %7, align 8, !tbaa !19
  %13 = getelementptr inbounds nuw i16, ptr %11, i64 %12
  %14 = load ptr, ptr %5, align 8, !tbaa !43
  %15 = call noundef ptr @_ZNK4base16BasicStringPieceINSt7__cxx1112basic_stringItNS_20string16_char_traitsESaItEEEE3endEv(ptr noundef nonnull align 8 dereferenceable(16) %14)
  %16 = load ptr, ptr %6, align 8, !tbaa !43
  %17 = call noundef ptr @_ZNK4base16BasicStringPieceINSt7__cxx1112basic_stringItNS_20string16_char_traitsESaItEEEE5beginEv(ptr noundef nonnull align 8 dereferenceable(16) %16)
  %18 = load ptr, ptr %6, align 8, !tbaa !43
  %19 = call noundef ptr @_ZNK4base16BasicStringPieceINSt7__cxx1112basic_stringItNS_20string16_char_traitsESaItEEEE3endEv(ptr noundef nonnull align 8 dereferenceable(16) %18)
  %20 = call noundef ptr @_ZSt13find_first_ofIPKtS1_ET_S2_S2_T0_S3_(ptr noundef %13, ptr noundef %15, ptr noundef %17, ptr noundef %19)
  store ptr %20, ptr %8, align 8, !tbaa !49
  %21 = load ptr, ptr %8, align 8, !tbaa !49
  %22 = load ptr, ptr %5, align 8, !tbaa !43
  %23 = call noundef ptr @_ZNK4base16BasicStringPieceINSt7__cxx1112basic_stringItNS_20string16_char_traitsESaItEEEE3endEv(ptr noundef nonnull align 8 dereferenceable(16) %22)
  %24 = icmp eq ptr %21, %23
  br i1 %24, label %25, label %26

25:                                               ; preds = %3
  store i64 -1, ptr %4, align 8
  store i32 1, ptr %9, align 4
  br label %34

26:                                               ; preds = %3
  %27 = load ptr, ptr %8, align 8, !tbaa !49
  %28 = load ptr, ptr %5, align 8, !tbaa !43
  %29 = call noundef ptr @_ZNK4base16BasicStringPieceINSt7__cxx1112basic_stringItNS_20string16_char_traitsESaItEEEE5beginEv(ptr noundef nonnull align 8 dereferenceable(16) %28)
  %30 = ptrtoint ptr %27 to i64
  %31 = ptrtoint ptr %29 to i64
  %32 = sub i64 %30, %31
  %33 = sdiv exact i64 %32, 2
  store i64 %33, ptr %4, align 8
  store i32 1, ptr %9, align 4
  br label %34

34:                                               ; preds = %26, %25
  call void @llvm.lifetime.end.p0(i64 8, ptr %8) #14
  %35 = load i64, ptr %4, align 8
  ret i64 %35
}