; Function Attrs: mustprogress nofree norecurse nosync nounwind willreturn memory(read, inaccessiblemem: none) uwtable
define noundef range(i64 -4611686018427387904, 4611686018427387904) i64 @_ZN4base8internal13find_first_ofERKNS_16BasicStringPieceINSt7__cxx1112basic_stringItNS_20string16_char_traitsESaItEEEEES9_m(ptr noundef nonnull readonly align 8 captures(none) dereferenceable(16) %0, ptr noundef nonnull readonly align 8 captures(none) dereferenceable(16) %1, i64 noundef %2) local_unnamed_addr #5 {
  %4 = load ptr, ptr %0, align 8, !tbaa !35
  %5 = getelementptr inbounds nuw i8, ptr %0, i64 8
  %6 = load i64, ptr %5, align 8, !tbaa !38
  %7 = getelementptr inbounds nuw i16, ptr %4, i64 %6
  %8 = load ptr, ptr %1, align 8, !tbaa !35
  %9 = getelementptr inbounds nuw i8, ptr %1, i64 8
  %10 = load i64, ptr %9, align 8, !tbaa !38
  %11 = getelementptr inbounds nuw i16, ptr %8, i64 %10
  %.not26.i = icmp samesign eq i64 %2, %6
  %.not1624.i = icmp eq i64 %10, 0
  %or.cond.i = or i1 %.not26.i, %.not1624.i
  br i1 %or.cond.i, label %_ZSt13find_first_ofIPKtS1_ET_S2_S2_T0_S3_.exit.thread, label %.preheader.i.preheader

.preheader.i.preheader:                           ; preds = %3
  %12 = getelementptr inbounds nuw i16, ptr %4, i64 %2
  br label %.preheader.i

.preheader.i:                                     ; preds = %.preheader.i.preheader, %._crit_edge.i
  %.01427.i = phi ptr [ %19, %._crit_edge.i ], [ %12, %.preheader.i.preheader ]
  %13 = load i16, ptr %.01427.i, align 2, !tbaa !44
  br label %16

14:                                               ; preds = %16
  %15 = getelementptr inbounds nuw i8, ptr %.01225.i, i64 2
  %.not16.i = icmp eq ptr %15, %11
  br i1 %.not16.i, label %._crit_edge.i, label %16, !llvm.loop !51

16:                                               ; preds = %14, %.preheader.i
  %.01225.i = phi ptr [ %8, %.preheader.i ], [ %15, %14 ]
  %17 = load i16, ptr %.01225.i, align 2, !tbaa !44
  %18 = icmp eq i16 %13, %17
  br i1 %18, label %_ZSt13find_first_ofIPKtS1_ET_S2_S2_T0_S3_.exit, label %14

._crit_edge.i:                                    ; preds = %14
  %19 = getelementptr inbounds nuw i8, ptr %.01427.i, i64 2
  %.not.i = icmp eq ptr %19, %7
  br i1 %.not.i, label %_ZSt13find_first_ofIPKtS1_ET_S2_S2_T0_S3_.exit.thread, label %.preheader.i, !llvm.loop !52

_ZSt13find_first_ofIPKtS1_ET_S2_S2_T0_S3_.exit:   ; preds = %16
  %20 = icmp eq ptr %.01427.i, %7
  br i1 %20, label %_ZSt13find_first_ofIPKtS1_ET_S2_S2_T0_S3_.exit.thread, label %21

21:                                               ; preds = %_ZSt13find_first_ofIPKtS1_ET_S2_S2_T0_S3_.exit
  %22 = ptrtoint ptr %.01427.i to i64
  %23 = ptrtoint ptr %4 to i64
  %24 = sub i64 %22, %23
  %25 = ashr exact i64 %24, 1
  br label %_ZSt13find_first_ofIPKtS1_ET_S2_S2_T0_S3_.exit.thread

_ZSt13find_first_ofIPKtS1_ET_S2_S2_T0_S3_.exit.thread: ; preds = %._crit_edge.i, %3, %_ZSt13find_first_ofIPKtS1_ET_S2_S2_T0_S3_.exit, %21
  %.0 = phi i64 [ %25, %21 ], [ -1, %_ZSt13find_first_ofIPKtS1_ET_S2_S2_T0_S3_.exit ], [ -1, %3 ], [ -1, %._crit_edge.i ]
  ret i64 %.0
}